; Function Attrs: mustprogress nounwind uwtable
define hidden noundef ptr @_ZN9G1CardSet19allocate_mem_objectEm(ptr nocapture noundef nonnull readonly align 8 dereferenceable(40) %0, i64 noundef %1) local_unnamed_addr #1 align 2 {
  %3 = getelementptr inbounds i8, ptr %0, i64 8
  %4 = load ptr, ptr %3, align 8
  %5 = getelementptr inbounds i8, ptr %4, i64 16
  %6 = load ptr, ptr %5, align 8
  %7 = and i64 %1, 4294967295
  %8 = getelementptr inbounds %class.G1CardSetAllocator, ptr %6, i64 %7, i32 1
  %9 = tail call noundef ptr @_ZN17FreeListAllocator8allocateEv(ptr noundef nonnull align 8 dereferenceable(568) %8) #19
  ret ptr %9
}